target datalayout = "e-m:e-p270:32:32-p271:32:32-p272:64:64-i64:64-i128:128-f80:128-n8:16:32:64-S128"
target triple = "x86_64-pc-linux-gnu"

%struct.Ssw_RarPars_t_ = type { i32, i32, i32, i32, i32, i32, i32, i32, i32, i32, i32, i32, i32, i32, i32, i32, i32, i32, i32, ptr, ptr }
%struct.Ssw_RarMan_t_ = type { ptr, i32, i32, ptr, ptr, ptr, ptr, ptr, ptr, ptr, ptr, ptr, ptr, i32, i32, ptr }
%struct.Aig_Obj_t_ = type { %union.anon, ptr, ptr, i64, i32, i32, %union.anon.0 }
%union.anon = type { ptr }
%union.anon.0 = type { ptr }

; Function Attrs: inlinehint nounwind uwtable
define internal ptr @Ssw_RarObjSim(ptr noundef %0, i32 noundef %1) #4 {
  %3 = alloca ptr, align 8
  %4 = alloca i32, align 4
  store ptr %0, ptr %3, align 8, !tbaa !27
  store i32 %1, ptr %4, align 4, !tbaa !24
  %5 = load ptr, ptr %3, align 8, !tbaa !27
  %6 = getelementptr inbounds nuw %struct.Ssw_RarMan_t_, ptr %5, i32 0, i32 6
  %7 = load ptr, ptr %6, align 8, !tbaa !59
  %8 = load ptr, ptr %3, align 8, !tbaa !27
  %9 = getelementptr inbounds nuw %struct.Ssw_RarMan_t_, ptr %8, i32 0, i32 0
  %10 = load ptr, ptr %9, align 8, !tbaa !49
  %11 = getelementptr inbounds nuw %struct.Ssw_RarPars_t_, ptr %10, i32 0, i32 1
  %12 = load i32, ptr %11, align 4, !tbaa !12
  %13 = load i32, ptr %4, align 4, !tbaa !24
  %14 = mul nsw i32 %12, %13
  %15 = sext i32 %14 to i64
  %16 = getelementptr inbounds i64, ptr %7, i64 %15
  ret ptr %16
}

; Function Attrs: nounwind uwtable
define i32 @Ssw_RarManObjHashWord(ptr noundef %0, ptr noundef %1) #0 {
  %3 = alloca ptr, align 8
  %4 = alloca ptr, align 8
  %5 = alloca ptr, align 8
  %6 = alloca ptr, align 8
  %7 = alloca i32, align 4
  %8 = alloca i32, align 4
  store ptr %0, ptr %3, align 8, !tbaa !58
  store ptr %1, ptr %4, align 8, !tbaa !47
  call void @llvm.lifetime.start.p0(i64 8, ptr %5) #11
  %9 = load ptr, ptr %3, align 8, !tbaa !58
  store ptr %9, ptr %5, align 8, !tbaa !27
  call void @llvm.lifetime.start.p0(i64 8, ptr %6) #11
  call void @llvm.lifetime.start.p0(i64 4, ptr %7) #11
  call void @llvm.lifetime.start.p0(i64 4, ptr %8) #11
  store i32 0, ptr %7, align 4, !tbaa !24
  %10 = load ptr, ptr %5, align 8, !tbaa !27
  %11 = load ptr, ptr %4, align 8, !tbaa !47
  %12 = getelementptr inbounds nuw %struct.Aig_Obj_t_, ptr %11, i32 0, i32 5
  %13 = load i32, ptr %12, align 4, !tbaa !60
  %14 = call ptr @Ssw_RarObjSim(ptr noundef %10, i32 noundef %13)
  store ptr %14, ptr %6, align 8, !tbaa !74
  store i32 0, ptr %8, align 4, !tbaa !24
  br label %15

15:                                               ; preds = %38, %2
  %16 = load i32, ptr %8, align 4, !tbaa !24
  %17 = load ptr, ptr %5, align 8, !tbaa !27
  %18 = getelementptr inbounds nuw %struct.Ssw_RarMan_t_, ptr %17, i32 0, i32 0
  %19 = load ptr, ptr %18, align 8, !tbaa !49
  %20 = getelementptr inbounds nuw %struct.Ssw_RarPars_t_, ptr %19, i32 0, i32 1
  %21 = load i32, ptr %20, align 4, !tbaa !12
  %22 = mul nsw i32 2, %21
  %23 = icmp slt i32 %16, %22
  br i1 %23, label %24, label %41

24:                                               ; preds = %15
  %25 = load ptr, ptr %6, align 8, !tbaa !74
  %26 = load i32, ptr %8, align 4, !tbaa !24
  %27 = sext i32 %26 to i64
  %28 = getelementptr inbounds i32, ptr %25, i64 %27
  %29 = load i32, ptr %28, align 4, !tbaa !24
  %30 = load i32, ptr %8, align 4, !tbaa !24
  %31 = and i32 %30, 127
  %32 = sext i32 %31 to i64
  %33 = getelementptr inbounds [128 x i32], ptr @Ssw_RarManObjHashWord.s_SPrimes, i64 0, i64 %32
  %34 = load i32, ptr %33, align 4, !tbaa !24
  %35 = mul i32 %29, %34
  %36 = load i32, ptr %7, align 4, !tbaa !24
  %37 = xor i32 %36, %35
  store i32 %37, ptr %7, align 4, !tbaa !24
  br label %38

38:                                               ; preds = %24
  %39 = load i32, ptr %8, align 4, !tbaa !24
  %40 = add nsw i32 %39, 1
  store i32 %40, ptr %8, align 4, !tbaa !24
  br label %15, !llvm.loop !105

41:                                               ; preds = %15
  %42 = load i32, ptr %7, align 4, !tbaa !24
  call void @llvm.lifetime.end.p0(i64 4, ptr %8) #11
  call void @llvm.lifetime.end.p0(i64 4, ptr %7) #11
  call void @llvm.lifetime.end.p0(i64 8, ptr %6) #11
  call void @llvm.lifetime.end.p0(i64 8, ptr %5) #11
  ret i32 %42
}