; Function Attrs: nofree norecurse nosync nounwind memory(read, inaccessiblemem: none) uwtable
define i32 @Ssw_RarManObjHashWord(ptr noundef readonly captures(none) %0, ptr noundef readonly captures(none) %1) #8 {
  %3 = getelementptr inbounds nuw i8, ptr %1, i64 36
  %4 = load i32, ptr %3, align 4, !tbaa !39
  %.val = load ptr, ptr %0, align 8, !tbaa !33
  %5 = getelementptr i8, ptr %0, i64 40
  %.val11 = load ptr, ptr %5, align 8, !tbaa !34
  %6 = getelementptr i8, ptr %.val, i64 4
  %.val.val = load i32, ptr %6, align 4, !tbaa !10
  %7 = mul nsw i32 %.val.val, %4
  %8 = sext i32 %7 to i64
  %9 = getelementptr inbounds i64, ptr %.val11, i64 %8
  %10 = icmp sgt i32 %.val.val, 0
  br i1 %10, label %.lr.ph.preheader, label %._crit_edge

.lr.ph.preheader:                                 ; preds = %2
  %11 = shl nuw i32 %.val.val, 1
  %smax = tail call i32 @llvm.smax.i32(i32 %11, i32 1)
  %wide.trip.count = zext nneg i32 %smax to i64
  br label %.lr.ph

.lr.ph:                                           ; preds = %.lr.ph.preheader, %.lr.ph
  %indvars.iv = phi i64 [ 0, %.lr.ph.preheader ], [ %indvars.iv.next, %.lr.ph ]
  %.01012 = phi i32 [ 0, %.lr.ph.preheader ], [ %18, %.lr.ph ]
  %12 = getelementptr inbounds nuw i32, ptr %9, i64 %indvars.iv
  %13 = load i32, ptr %12, align 4, !tbaa !45
  %14 = and i64 %indvars.iv, 127
  %15 = getelementptr inbounds nuw [128 x i32], ptr @Ssw_RarManObjHashWord.s_SPrimes, i64 0, i64 %14
  %16 = load i32, ptr %15, align 4, !tbaa !45
  %17 = mul i32 %16, %13
  %18 = xor i32 %17, %.01012
  %indvars.iv.next = add nuw nsw i64 %indvars.iv, 1
  %exitcond.not = icmp eq i64 %indvars.iv.next, %wide.trip.count
  br i1 %exitcond.not, label %._crit_edge, label %.lr.ph, !llvm.loop !90

._crit_edge:                                      ; preds = %.lr.ph, %2
  %.010.lcssa = phi i32 [ 0, %2 ], [ %18, %.lr.ph ]
  ret i32 %.010.lcssa
}